target datalayout = "e-m:e-p270:32:32-p271:32:32-p272:64:64-i64:64-i128:128-f80:128-n8:16:32:64-S128"
target triple = "x86_64-pc-linux-gnu"

%struct.message = type { ptr, i32, i32, ptr, ptr, ptr, ptr, ptr, ptr, i64, i32, ptr, ptr, ptr, ptr, ptr, i8, i8, i8, i8, ptr }
%struct.text = type { ptr, ptr }

@.str.121 = private unnamed_addr constant [14 x i8] c"messageDedup\0A\00", align 1
@.str.122 = private unnamed_addr constant [29 x i8] c"messageDedup: out of memory\0A\00", align 1
@.str.123 = private unnamed_addr constant [34 x i8] c"messageDedup reclaimed %lu bytes\0A\00", align 1

; Function Attrs: nounwind uwtable
define internal void @messageDedup(ptr noundef %0) #0 {
  %2 = alloca ptr, align 8
  %3 = alloca ptr, align 8
  %4 = alloca i64, align 8
  %5 = alloca ptr, align 8
  %6 = alloca ptr, align 8
  %7 = alloca ptr, align 8
  %8 = alloca i32, align 4
  %9 = alloca ptr, align 8
  %10 = alloca ptr, align 8
  store ptr %0, ptr %2, align 8
  store i64 0, ptr %4, align 8
  call void (ptr, ...) @cli_dbgmsg(ptr noundef @.str.121)
  %11 = load ptr, ptr %2, align 8
  %12 = getelementptr inbounds %struct.message, ptr %11, i32 0, i32 15
  %13 = load ptr, ptr %12, align 8
  %14 = icmp ne ptr %13, null
  br i1 %14, label %15, label %19

15:                                               ; preds = %1
  %16 = load ptr, ptr %2, align 8
  %17 = getelementptr inbounds %struct.message, ptr %16, i32 0, i32 15
  %18 = load ptr, ptr %17, align 8
  br label %23

19:                                               ; preds = %1
  %20 = load ptr, ptr %2, align 8
  %21 = getelementptr inbounds %struct.message, ptr %20, i32 0, i32 6
  %22 = load ptr, ptr %21, align 8
  br label %23

23:                                               ; preds = %19, %15
  %24 = phi ptr [ %18, %15 ], [ %22, %19 ]
  store ptr %24, ptr %3, align 8
  %25 = load ptr, ptr %2, align 8
  %26 = getelementptr inbounds %struct.message, ptr %25, i32 0, i32 6
  %27 = load ptr, ptr %26, align 8
  store ptr %27, ptr %3, align 8
  br label %28

28:                                               ; preds = %143, %23
  %29 = load ptr, ptr %3, align 8
  %30 = icmp ne ptr %29, null
  br i1 %30, label %31, label %147

31:                                               ; preds = %28
  %32 = load i64, ptr %4, align 8
  %33 = icmp uge i64 %32, 100000
  br i1 %33, label %34, label %35

34:                                               ; preds = %31
  br label %147

35:                                               ; preds = %31
  %36 = load ptr, ptr %3, align 8
  %37 = getelementptr inbounds %struct.text, ptr %36, i32 0, i32 0
  %38 = load ptr, ptr %37, align 8
  store ptr %38, ptr %7, align 8
  %39 = load ptr, ptr %7, align 8
  %40 = icmp eq ptr %39, null
  br i1 %40, label %41, label %42

41:                                               ; preds = %35
  br label %143

42:                                               ; preds = %35
  %43 = load ptr, ptr %7, align 8
  %44 = call ptr @lineGetData(ptr noundef %43)
  store ptr %44, ptr %5, align 8
  %45 = load ptr, ptr %5, align 8
  %46 = call i64 @strlen(ptr noundef %45) #13
  %47 = icmp ult i64 %46, 8
  br i1 %47, label %48, label %49

48:                                               ; preds = %42
  br label %143

49:                                               ; preds = %42
  %50 = load ptr, ptr %7, align 8
  %51 = getelementptr inbounds i8, ptr %50, i64 0
  %52 = load i8, ptr %51, align 1
  %53 = zext i8 %52 to i32
  store i32 %53, ptr %8, align 4
  %54 = load i32, ptr %8, align 4
  %55 = icmp eq i32 %54, 255
  br i1 %55, label %56, label %57

56:                                               ; preds = %49
  br label %143

57:                                               ; preds = %49
  %58 = load ptr, ptr %3, align 8
  %59 = load ptr, ptr %2, align 8
  %60 = getelementptr inbounds %struct.message, ptr %59, i32 0, i32 14
  %61 = load ptr, ptr %60, align 8
  %62 = icmp eq ptr %58, %61
  br i1 %62, label %63, label %64

63:                                               ; preds = %57
  br label %143

64:                                               ; preds = %57
  %65 = load ptr, ptr %3, align 8
  %66 = load ptr, ptr %2, align 8
  %67 = getelementptr inbounds %struct.message, ptr %66, i32 0, i32 11
  %68 = load ptr, ptr %67, align 8
  %69 = icmp eq ptr %65, %68
  br i1 %69, label %70, label %71

70:                                               ; preds = %64
  br label %143

71:                                               ; preds = %64
  %72 = load ptr, ptr %3, align 8
  %73 = load ptr, ptr %2, align 8
  %74 = getelementptr inbounds %struct.message, ptr %73, i32 0, i32 12
  %75 = load ptr, ptr %74, align 8
  %76 = icmp eq ptr %72, %75
  br i1 %76, label %77, label %78

77:                                               ; preds = %71
  br label %143

78:                                               ; preds = %71
  %79 = load ptr, ptr %3, align 8
  %80 = load ptr, ptr %2, align 8
  %81 = getelementptr inbounds %struct.message, ptr %80, i32 0, i32 13
  %82 = load ptr, ptr %81, align 8
  %83 = icmp eq ptr %79, %82
  br i1 %83, label %84, label %85

84:                                               ; preds = %78
  br label %143

85:                                               ; preds = %78
  %86 = load ptr, ptr %3, align 8
  %87 = getelementptr inbounds %struct.text, ptr %86, i32 0, i32 1
  %88 = load ptr, ptr %87, align 8
  store ptr %88, ptr %6, align 8
  br label %89

89:                                               ; preds = %138, %85
  %90 = load ptr, ptr %6, align 8
  %91 = icmp ne ptr %90, null
  br i1 %91, label %92, label %142

92:                                               ; preds = %89
  %93 = load ptr, ptr %6, align 8
  %94 = getelementptr inbounds %struct.text, ptr %93, i32 0, i32 0
  %95 = load ptr, ptr %94, align 8
  store ptr %95, ptr %10, align 8
  %96 = load ptr, ptr %10, align 8
  %97 = icmp eq ptr %96, null
  br i1 %97, label %98, label %99

98:                                               ; preds = %92
  br label %138

99:                                               ; preds = %92
  %100 = load ptr, ptr %10, align 8
  %101 = call ptr @lineGetData(ptr noundef %100)
  store ptr %101, ptr %9, align 8
  %102 = load ptr, ptr %5, align 8
  %103 = load ptr, ptr %9, align 8
  %104 = icmp eq ptr %102, %103
  br i1 %104, label %105, label %106

105:                                              ; preds = %99
  br label %138

106:                                              ; preds = %99
  %107 = load ptr, ptr %5, align 8
  %108 = load ptr, ptr %9, align 8
  %109 = call i32 @strcmp(ptr noundef %107, ptr noundef %108) #13
  %110 = icmp eq i32 %109, 0
  br i1 %110, label %111, label %137

111:                                              ; preds = %106
  %112 = load ptr, ptr %10, align 8
  %113 = call ptr @lineUnlink(ptr noundef %112)
  %114 = icmp eq ptr %113, null
  br i1 %114, label %115, label %121

115:                                              ; preds = %111
  %116 = load ptr, ptr %5, align 8
  %117 = call i64 @strlen(ptr noundef %116) #13
  %118 = add i64 %117, 1
  %119 = load i64, ptr %4, align 8
  %120 = add i64 %119, %118
  store i64 %120, ptr %4, align 8
  br label %121

121:                                              ; preds = %115, %111
  %122 = load ptr, ptr %7, align 8
  %123 = call ptr @lineLink(ptr noundef %122)
  %124 = load ptr, ptr %6, align 8
  %125 = getelementptr inbounds %struct.text, ptr %124, i32 0, i32 0
  store ptr %123, ptr %125, align 8
  %126 = load ptr, ptr %6, align 8
  %127 = getelementptr inbounds %struct.text, ptr %126, i32 0, i32 0
  %128 = load ptr, ptr %127, align 8
  %129 = icmp eq ptr %128, null
  br i1 %129, label %130, label %131

130:                                              ; preds = %121
  call void (ptr, ...) @cli_errmsg(ptr noundef @.str.122)
  br label %152

131:                                              ; preds = %121
  %132 = load i32, ptr %8, align 4
  %133 = add i32 %132, 1
  store i32 %133, ptr %8, align 4
  %134 = icmp eq i32 %133, 255
  br i1 %134, label %135, label %136

135:                                              ; preds = %131
  br label %142

136:                                              ; preds = %131
  br label %137

137:                                              ; preds = %136, %106
  br label %138

138:                                              ; preds = %137, %105, %98
  %139 = load ptr, ptr %6, align 8
  %140 = getelementptr inbounds %struct.text, ptr %139, i32 0, i32 1
  %141 = load ptr, ptr %140, align 8
  store ptr %141, ptr %6, align 8
  br label %89

142:                                              ; preds = %135, %89
  br label %143

143:                                              ; preds = %142, %84, %77, %70, %63, %56, %48, %41
  %144 = load ptr, ptr %3, align 8
  %145 = getelementptr inbounds %struct.text, ptr %144, i32 0, i32 1
  %146 = load ptr, ptr %145, align 8
  store ptr %146, ptr %3, align 8
  br label %28

147:                                              ; preds = %34, %28
  %148 = load i64, ptr %4, align 8
  call void (ptr, ...) @cli_dbgmsg(ptr noundef @.str.123, i64 noundef %148)
  %149 = load ptr, ptr %3, align 8
  %150 = load ptr, ptr %2, align 8
  %151 = getelementptr inbounds %struct.message, ptr %150, i32 0, i32 15
  store ptr %149, ptr %151, align 8
  br label %152

152:                                              ; preds = %147, %130
  ret void
}