; Function Attrs: nounwind uwtable
define internal fastcc void @messageDedup(ptr nocapture noundef %0) unnamed_addr #2 {
  tail call void (ptr, ...) @cli_dbgmsg(ptr noundef nonnull @.str.121) #21
  %2 = getelementptr inbounds i8, ptr %0, i64 112
  %3 = getelementptr inbounds i8, ptr %0, i64 40
  %.062 = load ptr, ptr %3, align 8
  %4 = icmp eq ptr %.062, null
  br i1 %4, label %._crit_edge, label %.lr.ph65

.lr.ph65:                                         ; preds = %1
  %5 = getelementptr inbounds i8, ptr %0, i64 104
  %6 = getelementptr inbounds i8, ptr %0, i64 80
  %7 = getelementptr inbounds i8, ptr %0, i64 88
  %8 = getelementptr inbounds i8, ptr %0, i64 96
  br label %9

9:                                                ; preds = %.lr.ph65, %.loopexit
  %.064 = phi ptr [ %.062, %.lr.ph65 ], [ %.0, %.loopexit ]
  %.04163 = phi i64 [ 0, %.lr.ph65 ], [ %.4, %.loopexit ]
  %10 = load ptr, ptr %.064, align 8
  %11 = icmp eq ptr %10, null
  br i1 %11, label %.loopexit, label %12

12:                                               ; preds = %9
  %13 = tail call ptr @lineGetData(ptr noundef nonnull %10) #21
  %14 = tail call i64 @strlen(ptr noundef nonnull dereferenceable(1) %13) #23
  %15 = icmp ult i64 %14, 8
  br i1 %15, label %.loopexit, label %16

16:                                               ; preds = %12
  %17 = load i8, ptr %10, align 1
  %18 = zext i8 %17 to i32
  %19 = icmp eq i8 %17, -1
  br i1 %19, label %.loopexit, label %20

20:                                               ; preds = %16
  %21 = load ptr, ptr %5, align 8
  %22 = icmp eq ptr %.064, %21
  br i1 %22, label %.loopexit, label %23

23:                                               ; preds = %20
  %24 = load ptr, ptr %6, align 8
  %25 = icmp eq ptr %.064, %24
  br i1 %25, label %.loopexit, label %26

26:                                               ; preds = %23
  %27 = load ptr, ptr %7, align 8
  %28 = icmp eq ptr %.064, %27
  br i1 %28, label %.loopexit, label %29

29:                                               ; preds = %26
  %30 = load ptr, ptr %8, align 8
  %31 = icmp eq ptr %.064, %30
  br i1 %31, label %.loopexit, label %.preheader

.preheader:                                       ; preds = %29
  %.044.in54 = getelementptr inbounds i8, ptr %.064, i64 8
  %.04455 = load ptr, ptr %.044.in54, align 8
  %.not5156 = icmp eq ptr %.04455, null
  br i1 %.not5156, label %.loopexit, label %.lr.ph

.lr.ph:                                           ; preds = %.preheader, %54
  %.04459 = phi ptr [ %.044, %54 ], [ %.04455, %.preheader ]
  %.158 = phi i64 [ %.3, %54 ], [ %.04163, %.preheader ]
  %.04257 = phi i32 [ %.143, %54 ], [ %18, %.preheader ]
  %32 = load ptr, ptr %.04459, align 8
  %33 = icmp eq ptr %32, null
  br i1 %33, label %54, label %34

34:                                               ; preds = %.lr.ph
  %35 = tail call ptr @lineGetData(ptr noundef nonnull %32) #21
  %36 = icmp eq ptr %13, %35
  br i1 %36, label %54, label %37

37:                                               ; preds = %34
  %38 = tail call i32 @strcmp(ptr noundef nonnull dereferenceable(1) %13, ptr noundef nonnull dereferenceable(1) %35) #23
  %39 = icmp eq i32 %38, 0
  br i1 %39, label %40, label %54

40:                                               ; preds = %37
  %41 = tail call ptr @lineUnlink(ptr noundef nonnull %32) #21
  %42 = icmp eq ptr %41, null
  br i1 %42, label %43, label %47

43:                                               ; preds = %40
  %44 = tail call i64 @strlen(ptr noundef nonnull dereferenceable(1) %13) #23
  %45 = add i64 %.158, 1
  %46 = add i64 %45, %44
  br label %47

47:                                               ; preds = %43, %40
  %.2 = phi i64 [ %46, %43 ], [ %.158, %40 ]
  %48 = tail call ptr @lineLink(ptr noundef nonnull %10) #21
  store ptr %48, ptr %.04459, align 8
  %49 = icmp eq ptr %48, null
  br i1 %49, label %50, label %51

50:                                               ; preds = %47
  tail call void (ptr, ...) @cli_errmsg(ptr noundef nonnull @.str.122) #21
  br label %58

51:                                               ; preds = %47
  %52 = add nuw nsw i32 %.04257, 1
  %53 = icmp eq i32 %52, 255
  br i1 %53, label %.loopexit, label %54

54:                                               ; preds = %37, %51, %34, %.lr.ph
  %.143 = phi i32 [ %.04257, %.lr.ph ], [ %.04257, %34 ], [ %52, %51 ], [ %.04257, %37 ]
  %.3 = phi i64 [ %.158, %.lr.ph ], [ %.158, %34 ], [ %.2, %51 ], [ %.158, %37 ]
  %.044.in = getelementptr inbounds i8, ptr %.04459, i64 8
  %.044 = load ptr, ptr %.044.in, align 8
  %.not51 = icmp eq ptr %.044, null
  br i1 %.not51, label %.loopexit, label %.lr.ph

.loopexit:                                        ; preds = %51, %54, %.preheader, %29, %26, %23, %20, %16, %12, %9
  %.4 = phi i64 [ %.04163, %9 ], [ %.04163, %12 ], [ %.04163, %16 ], [ %.04163, %20 ], [ %.04163, %23 ], [ %.04163, %26 ], [ %.04163, %29 ], [ %.04163, %.preheader ], [ %.2, %51 ], [ %.3, %54 ]
  %55 = getelementptr inbounds i8, ptr %.064, i64 8
  %.0 = load ptr, ptr %55, align 8
  %56 = icmp eq ptr %.0, null
  %57 = icmp ugt i64 %.4, 99999
  %or.cond = select i1 %56, i1 true, i1 %57
  br i1 %or.cond, label %._crit_edge, label %9

._crit_edge:                                      ; preds = %.loopexit, %1
  %.041.lcssa = phi i64 [ 0, %1 ], [ %.4, %.loopexit ]
  %.0.lcssa = phi ptr [ null, %1 ], [ %.0, %.loopexit ]
  tail call void (ptr, ...) @cli_dbgmsg(ptr noundef nonnull @.str.123, i64 noundef %.041.lcssa) #21
  store ptr %.0.lcssa, ptr %2, align 8
  br label %58

58:                                               ; preds = %._crit_edge, %50
  ret void
}